target datalayout = "e-m:e-p270:32:32-p271:32:32-p272:64:64-i64:64-i128:128-f80:128-n8:16:32:64-S128"
target triple = "x86_64-pc-linux-gnu"

%struct.compression_type = type { i32, ptr, ptr, ptr, i8 }

; Function Attrs: nounwind null_pointer_is_valid sspstrong uwtable
define zeroext i1 @wtap_can_write_compression_type(i32 noundef %0) #3 {
  %2 = alloca i1, align 1
  %3 = alloca i32, align 4
  %4 = alloca ptr, align 8
  %5 = alloca i32, align 4
  store i32 %0, ptr %3, align 4
  call void @llvm.lifetime.start.p0(i64 8, ptr %4) #14
  store ptr @compression_types, ptr %4, align 8
  br label %6

6:                                                ; preds = %24, %1
  %7 = load ptr, ptr %4, align 8
  %8 = getelementptr inbounds nuw %struct.compression_type, ptr %7, i32 0, i32 0
  %9 = load i32, ptr %8, align 8
  %10 = icmp ne i32 %9, 4
  br i1 %10, label %12, label %11

11:                                               ; preds = %6
  store i32 2, ptr %5, align 4
  br label %27

12:                                               ; preds = %6
  %13 = load i32, ptr %3, align 4
  %14 = load ptr, ptr %4, align 8
  %15 = getelementptr inbounds nuw %struct.compression_type, ptr %14, i32 0, i32 0
  %16 = load i32, ptr %15, align 8
  %17 = icmp eq i32 %13, %16
  br i1 %17, label %18, label %23

18:                                               ; preds = %12
  %19 = load ptr, ptr %4, align 8
  %20 = getelementptr inbounds nuw %struct.compression_type, ptr %19, i32 0, i32 4
  %21 = load i8, ptr %20, align 8, !range !9, !noundef !10
  %22 = trunc i8 %21 to i1
  store i1 %22, ptr %2, align 1
  store i32 1, ptr %5, align 4
  br label %27

23:                                               ; preds = %12
  br label %24

24:                                               ; preds = %23
  %25 = load ptr, ptr %4, align 8
  %26 = getelementptr %struct.compression_type, ptr %25, i32 1
  store ptr %26, ptr %4, align 8
  br label %6, !llvm.loop !11

27:                                               ; preds = %18, %11
  call void @llvm.lifetime.end.p0(i64 8, ptr %4) #14
  %28 = load i32, ptr %5, align 4
  switch i32 %28, label %32 [
    i32 2, label %29
    i32 1, label %30
  ]

29:                                               ; preds = %27
  store i1 false, ptr %2, align 1
  br label %30

30:                                               ; preds = %29, %27
  %31 = load i1, ptr %2, align 1
  ret i1 %31

32:                                               ; preds = %27
  unreachable
}