; Function Attrs: nofree norecurse nosync nounwind null_pointer_is_valid sspstrong memory(none) uwtable
define zeroext i1 @wtap_can_write_compression_type(i32 noundef %0) local_unnamed_addr #3 {
  br label %2

2:                                                ; preds = %1, %9
  %3 = phi i32 [ 1, %1 ], [ %11, %9 ]
  %.0610 = phi ptr [ @compression_types, %1 ], [ %10, %9 ]
  %4 = icmp eq i32 %0, %3
  br i1 %4, label %5, label %9

5:                                                ; preds = %2
  %6 = getelementptr inbounds nuw i8, ptr %.0610, i64 32
  %7 = load i8, ptr %6, align 8, !range !9, !noundef !10
  %8 = trunc nuw i8 %7 to i1
  br label %.loopexit

9:                                                ; preds = %2
  %10 = getelementptr i8, ptr %.0610, i64 40
  %11 = load i32, ptr %10, align 8
  %.not.not = icmp eq i32 %11, 4
  br i1 %.not.not, label %.loopexit, label %2, !llvm.loop !11

.loopexit:                                        ; preds = %9, %5
  %spec.select = phi i1 [ %8, %5 ], [ false, %9 ]
  ret i1 %spec.select
}